; Function Attrs: mustprogress uwtable
define void @_ZN6duckdb16ListColumnWriter15FinalizeAnalyzeERNS_17ColumnWriterStateE(ptr noundef nonnull align 8 dereferenceable(80) %0, ptr noundef nonnull align 8 dereferenceable(112) %1) unnamed_addr #0 align 2 {
  %3 = getelementptr inbounds nuw i8, ptr %0, i64 72
  %4 = tail call noundef ptr @_ZNK6duckdb10unique_ptrINS_12ColumnWriterESt14default_deleteIS1_ELb1EEptEv(ptr noundef nonnull align 8 dereferenceable(8) %3)
  %5 = getelementptr inbounds nuw i8, ptr %1, i64 128
  %6 = tail call noundef nonnull align 8 dereferenceable(112) ptr @_ZNK6duckdb10unique_ptrINS_17ColumnWriterStateESt14default_deleteIS1_ELb1EEdeEv(ptr noundef nonnull align 8 dereferenceable(8) %5)
  %7 = load ptr, ptr %4, align 8, !tbaa !3
  %8 = getelementptr inbounds nuw i8, ptr %7, i64 40
  %9 = load ptr, ptr %8, align 8
  tail call void %9(ptr noundef nonnull align 8 dereferenceable(65) %4, ptr noundef nonnull align 8 dereferenceable(112) %6)
  ret void
}